(ikeras_frcnn.config
Config
p0
(dp1
S'use_vertical_flips'
p2
I00
sS'rpn_max_overlap'
p3
F0.7
sS'verbose'
p4
I01
sS'num_rois'
p5
I32
sS'img_channel_mean'
p6
(lp7
F103.939
aF116.779
aF123.68
asS'anchor_box_scales'
p8
(lp9
I128
aI256
aI512
asS'anchor_box_ratios'
p10
(lp11
(lp12
I1
aI1
aa(lp13
I1
aI2
aa(lp14
I2
aI1
aasS'rpn_min_overlap'
p15
F0.3
sS'rot_90'
p16
I00
sS'classifier_min_overlap'
p17
F0.1
sS'im_size'
p18
I600
sS'class_mapping'
p19
(dp20
S'foot'
p21
I1
sS'niceguy'
p22
I3
sS'umbrella'
p23
I2
sS'shoe'
p24
I0
sS'bg'
p25
I4
ssS'img_scaling_factor'
p26
F1.0
sS'base_net_weights'
p27
S'resnet50_weights_tf_dim_ordering_tf_kernels.h5'
p28
sS'classifier_regr_std'
p29
(lp30
F8.0
aF8.0
aF4.0
aF4.0
asS'model_path'
p31
S'./model_frcnn.hdf5'
p32
sS'classifier_max_overlap'
p33
F0.5
sS'std_scaling'
p34
F4.0
sS'use_horizontal_flips'
p35
I00
sS'rpn_stride'
p36
I16
sS'balanced_classes'
p37
I00
sb.